; Function Attrs: mustprogress nounwind uwtable
define hidden void @_ZNK21blsrI_rReg_rReg_0Node4emitEP17C2_MacroAssemblerP13PhaseRegAlloc(ptr noundef nonnull align 8 dereferenceable(96) %0, ptr noundef %1, ptr noundef %2) unnamed_addr #3 align 2 {
  %4 = getelementptr inbounds i8, ptr %0, i64 64
  %5 = getelementptr inbounds i8, ptr %0, i64 72
  %6 = load ptr, ptr %5, align 8
  %7 = load ptr, ptr %6, align 8
  %8 = getelementptr inbounds i8, ptr %7, i64 8
  %9 = load ptr, ptr %8, align 8
  %10 = tail call noundef i32 %9(ptr noundef nonnull align 8 dereferenceable(8) %6) #23
  %11 = load ptr, ptr %4, align 8
  %12 = load ptr, ptr %11, align 8
  %13 = getelementptr inbounds i8, ptr %12, i64 32
  %14 = load ptr, ptr %13, align 8
  %15 = tail call noundef i32 %14(ptr noundef nonnull align 8 dereferenceable(8) %11, ptr noundef %2, ptr noundef nonnull %0) #23
  %or.cond.i.i = icmp ult i32 %15, 32
  %spec.select.i.i = select i1 %or.cond.i.i, i32 %15, i32 -1
  %16 = load ptr, ptr %5, align 8
  %17 = load ptr, ptr %16, align 8
  %18 = getelementptr inbounds i8, ptr %17, i64 40
  %19 = load ptr, ptr %18, align 8
  %20 = tail call noundef i32 %19(ptr noundef nonnull align 8 dereferenceable(8) %16, ptr noundef %2, ptr noundef nonnull %0, i32 noundef 1) #23
  %or.cond.i.i6 = icmp ult i32 %20, 32
  %spec.select.i.i7 = select i1 %or.cond.i.i6, i32 %20, i32 -1
  tail call void @_ZN9Assembler5blsrlE8RegisterS0_(ptr noundef nonnull align 8 dereferenceable(40) %1, i32 %spec.select.i.i, i32 %spec.select.i.i7) #23
  ret void
}